; Function Attrs: nounwind uwtable
define hidden void @llvm_blake3_compress_xof(ptr noundef %0, ptr noundef %1, i8 noundef zeroext %2, i64 noundef %3, i8 noundef zeroext %4, ptr noundef %5) local_unnamed_addr #0 {
  %7 = load i32, ptr @g_cpu_features, align 4
  %.not.i = icmp eq i32 %7, 1073741824
  br i1 %.not.i, label %8, label %get_cpu_features.exit

8:                                                ; preds = %6
  %9 = tail call { i32, i32, i32, i32 } asm sideeffect "cpuid\0A", "={ax},={bx},={cx},={dx},{ax},~{dirflag},~{fpsr},~{flags}"(i32 0) #2, !srcloc !4
  %10 = extractvalue { i32, i32, i32, i32 } %9, 0
  %11 = tail call { i32, i32, i32, i32 } asm sideeffect "cpuid\0A", "={ax},={bx},={cx},={dx},{ax},~{dirflag},~{fpsr},~{flags}"(i32 1) #2, !srcloc !4
  %12 = extractvalue { i32, i32, i32, i32 } %11, 2
  %13 = and i32 %12, 1
  %.not22.i = icmp eq i32 %13, 0
  %spec.select.i = select i1 %.not22.i, i32 1, i32 3
  %14 = lshr i32 %12, 17
  %15 = and i32 %14, 4
  %.1.i = or disjoint i32 %spec.select.i, %15
  %16 = and i32 %12, 134217728
  %.not24.i = icmp eq i32 %16, 0
  br i1 %.not24.i, label %40, label %17

17:                                               ; preds = %8
  %18 = tail call { i32, i32 } asm sideeffect "xgetbv\0A", "={ax},={dx},{cx},~{dirflag},~{fpsr},~{flags}"(i32 0) #2, !srcloc !5
  %19 = extractvalue { i32, i32 } %18, 0
  %20 = zext i32 %19 to i64
  %21 = and i64 %20, 6
  %22 = icmp eq i64 %21, 6
  br i1 %22, label %23, label %40

23:                                               ; preds = %17
  %24 = lshr i32 %12, 25
  %25 = and i32 %24, 8
  %spec.select29.i = or disjoint i32 %.1.i, %25
  %26 = icmp sgt i32 %10, 6
  br i1 %26, label %27, label %40

27:                                               ; preds = %23
  %28 = tail call { i32, i32, i32, i32 } asm sideeffect "cpuid\0A", "={ax},={bx},={cx},={dx},{ax},{cx},~{dirflag},~{fpsr},~{flags}"(i32 7, i32 0) #2, !srcloc !6
  %29 = extractvalue { i32, i32, i32, i32 } %28, 1
  %30 = lshr i32 %29, 1
  %31 = and i32 %30, 16
  %spec.select30.i = or disjoint i32 %31, %spec.select29.i
  %32 = and i64 %20, 224
  %33 = icmp eq i64 %32, 224
  br i1 %33, label %34, label %40

34:                                               ; preds = %27
  %35 = lshr i32 %29, 25
  %36 = and i32 %35, 64
  %37 = lshr i32 %29, 11
  %38 = and i32 %37, 32
  %39 = or disjoint i32 %36, %38
  %spec.select32.i = or disjoint i32 %39, %spec.select30.i
  br label %40

40:                                               ; preds = %34, %27, %23, %17, %8
  %.2.i = phi i32 [ %spec.select30.i, %27 ], [ %spec.select29.i, %23 ], [ %.1.i, %17 ], [ %.1.i, %8 ], [ %spec.select32.i, %34 ]
  store i32 %.2.i, ptr @g_cpu_features, align 4
  br label %get_cpu_features.exit

get_cpu_features.exit:                            ; preds = %6, %40
  tail call void @llvm_blake3_compress_xof_portable(ptr noundef %0, ptr noundef %1, i8 noundef zeroext %2, i64 noundef %3, i8 noundef zeroext %4, ptr noundef %5) #2
  ret void
}